; Function Attrs: mustprogress nofree norecurse nosync nounwind willreturn memory(readwrite, inaccessiblemem: none) uwtable
define internal noundef i32 @H5S__point_iter_coords(ptr noundef readonly captures(none) %0, ptr noundef writeonly captures(none) %1) #9 {
  %3 = load i8, ptr @H5S_init_g, align 1, !tbaa !3, !range !7, !noundef !8
  %4 = trunc nuw i8 %3 to i1
  %5 = load i8, ptr @H5_libterm_g, align 1, !range !7
  %6 = trunc nuw i8 %5 to i1
  %7 = xor i1 %6, true
  %8 = select i1 %4, i1 true, i1 %7
  br i1 %8, label %9, label %17, !prof !9

9:                                                ; preds = %2
  %10 = getelementptr inbounds nuw i8, ptr %0, i64 560
  %11 = load ptr, ptr %10, align 8, !tbaa !10
  %12 = getelementptr inbounds nuw i8, ptr %11, i64 8
  %13 = getelementptr inbounds nuw i8, ptr %0, i64 8
  %14 = load i32, ptr %13, align 8, !tbaa !88
  %15 = zext i32 %14 to i64
  %16 = shl nuw nsw i64 %15, 3
  tail call void @llvm.memcpy.p0.p0.i64(ptr align 8 %1, ptr nonnull align 8 %12, i64 %16, i1 false)
  br label %17

17:                                               ; preds = %9, %2
  ret i32 0
}